target datalayout = "e-m:e-p270:32:32-p271:32:32-p272:64:64-i64:64-i128:128-f80:128-n8:16:32:64-S128"
target triple = "x86_64-pc-linux-gnu"

%struct.strbuf = type { i64, i64, ptr }
%struct.wt_status = type { ptr, i32, ptr, ptr, %struct.pathspec, i32, i32, i32, i32, i32, i32, i32, i32, i32, i32, i32, ptr, [9 x [75 x i8]], i32, i32, i32, i32, i32, i32, i32, i32, i32, i32, i32, i8, %struct.wt_status_state, %struct.object_id, i32, i32, ptr, ptr, ptr, %struct.string_list, %struct.string_list, %struct.string_list, i32 }
%struct.pathspec = type { i32, i8, i32, i32, ptr }
%struct.wt_status_state = type { i32, i32, i32, i32, i32, i32, i32, i32, i32, i32, ptr, ptr, ptr, ptr, %struct.object_id, %struct.object_id, %struct.object_id }
%struct.object_id = type { [32 x i8], i32 }
%struct.string_list = type { ptr, i64, i64, i8, ptr }
%struct.string_list_item = type { ptr, ptr }
%struct.wt_status_change_data = type { i32, i32, i32, i32, i32, i32, %struct.object_id, %struct.object_id, i32, i32, ptr, i8 }

@__const.add_file_to_list.full_name = private unnamed_addr constant %struct.strbuf { i64 0, i64 0, ptr @strbuf_slopbuf }, align 8

; Function Attrs: inlinehint nounwind uwtable
define internal void @oidcpy(ptr noundef %0, ptr noundef %1) #8 {
  %3 = alloca ptr, align 8
  %4 = alloca ptr, align 8
  store ptr %0, ptr %3, align 8, !tbaa !200
  store ptr %1, ptr %4, align 8, !tbaa !200
  %5 = load ptr, ptr %3, align 8, !tbaa !200
  %6 = getelementptr inbounds nuw %struct.object_id, ptr %5, i32 0, i32 0
  %7 = getelementptr inbounds [32 x i8], ptr %6, i64 0, i64 0
  %8 = load ptr, ptr %4, align 8, !tbaa !200
  %9 = getelementptr inbounds nuw %struct.object_id, ptr %8, i32 0, i32 0
  %10 = getelementptr inbounds [32 x i8], ptr %9, i64 0, i64 0
  call void @llvm.memcpy.p0.p0.i64(ptr align 4 %7, ptr align 4 %10, i64 32, i1 false)
  %11 = load ptr, ptr %4, align 8, !tbaa !200
  %12 = getelementptr inbounds nuw %struct.object_id, ptr %11, i32 0, i32 1
  %13 = load i32, ptr %12, align 4, !tbaa !201
  %14 = load ptr, ptr %3, align 8, !tbaa !200
  %15 = getelementptr inbounds nuw %struct.object_id, ptr %14, i32 0, i32 1
  store i32 %13, ptr %15, align 4, !tbaa !201
  ret void
}

; Function Attrs: inlinehint nounwind uwtable
define internal void @strbuf_addstr(ptr noundef %0, ptr noundef %1) #8 {
  %3 = alloca ptr, align 8
  %4 = alloca ptr, align 8
  store ptr %0, ptr %3, align 8, !tbaa !186
  store ptr %1, ptr %4, align 8, !tbaa !9
  %5 = load ptr, ptr %3, align 8, !tbaa !186
  %6 = load ptr, ptr %4, align 8, !tbaa !9
  %7 = load ptr, ptr %4, align 8, !tbaa !9
  %8 = call i64 @strlen(ptr noundef %7) #13
  call void @strbuf_add(ptr noundef %5, ptr noundef %6, i64 noundef %8)
  ret void
}

; Function Attrs: nounwind uwtable
define internal i32 @add_file_to_list(ptr noundef %0, ptr noundef %1, ptr noundef %2, i32 noundef %3, ptr noundef %4) #0 {
  %6 = alloca i32, align 4
  %7 = alloca ptr, align 8
  %8 = alloca ptr, align 8
  %9 = alloca ptr, align 8
  %10 = alloca i32, align 4
  %11 = alloca ptr, align 8
  %12 = alloca ptr, align 8
  %13 = alloca ptr, align 8
  %14 = alloca ptr, align 8
  %15 = alloca %struct.strbuf, align 8
  %16 = alloca i32, align 4
  store ptr %0, ptr %7, align 8, !tbaa !200
  store ptr %1, ptr %8, align 8, !tbaa !186
  store ptr %2, ptr %9, align 8, !tbaa !9
  store i32 %3, ptr %10, align 4, !tbaa !11
  store ptr %4, ptr %11, align 8, !tbaa !249
  call void @llvm.lifetime.start.p0(i64 8, ptr %12) #12
  call void @llvm.lifetime.start.p0(i64 8, ptr %13) #12
  call void @llvm.lifetime.start.p0(i64 8, ptr %14) #12
  %17 = load ptr, ptr %11, align 8, !tbaa !249
  store ptr %17, ptr %14, align 8, !tbaa !4
  call void @llvm.lifetime.start.p0(i64 24, ptr %15) #12
  call void @llvm.memcpy.p0.p0.i64(ptr align 8 %15, ptr align 8 @__const.add_file_to_list.full_name, i64 24, i1 false)
  %18 = load i32, ptr %10, align 4, !tbaa !11
  %19 = and i32 %18, 61440
  %20 = icmp eq i32 %19, 16384
  br i1 %20, label %21, label %22

21:                                               ; preds = %5
  store i32 1, ptr %6, align 4
  store i32 1, ptr %16, align 4
  br label %56

22:                                               ; preds = %5
  %23 = load ptr, ptr %8, align 8, !tbaa !186
  %24 = getelementptr inbounds nuw %struct.strbuf, ptr %23, i32 0, i32 2
  %25 = load ptr, ptr %24, align 8, !tbaa !29
  %26 = load ptr, ptr %8, align 8, !tbaa !186
  %27 = getelementptr inbounds nuw %struct.strbuf, ptr %26, i32 0, i32 1
  %28 = load i64, ptr %27, align 8, !tbaa !15
  call void @strbuf_add(ptr noundef %15, ptr noundef %25, i64 noundef %28)
  %29 = load ptr, ptr %9, align 8, !tbaa !9
  call void @strbuf_addstr(ptr noundef %15, ptr noundef %29)
  %30 = load ptr, ptr %14, align 8, !tbaa !4
  %31 = getelementptr inbounds nuw %struct.wt_status, ptr %30, i32 0, i32 37
  %32 = getelementptr inbounds nuw %struct.strbuf, ptr %15, i32 0, i32 2
  %33 = load ptr, ptr %32, align 8, !tbaa !29
  %34 = call ptr @string_list_insert(ptr noundef %31, ptr noundef %33)
  store ptr %34, ptr %12, align 8, !tbaa !139
  %35 = load ptr, ptr %12, align 8, !tbaa !139
  %36 = getelementptr inbounds nuw %struct.string_list_item, ptr %35, i32 0, i32 1
  %37 = load ptr, ptr %36, align 8, !tbaa !140
  store ptr %37, ptr %13, align 8, !tbaa !142
  %38 = load ptr, ptr %13, align 8, !tbaa !142
  %39 = icmp ne ptr %38, null
  br i1 %39, label %45, label %40

40:                                               ; preds = %22
  %41 = call ptr @xcalloc(i64 noundef 1, i64 noundef 120)
  store ptr %41, ptr %13, align 8, !tbaa !142
  %42 = load ptr, ptr %13, align 8, !tbaa !142
  %43 = load ptr, ptr %12, align 8, !tbaa !139
  %44 = getelementptr inbounds nuw %struct.string_list_item, ptr %43, i32 0, i32 1
  store ptr %42, ptr %44, align 8, !tbaa !140
  br label %45

45:                                               ; preds = %40, %22
  %46 = load ptr, ptr %13, align 8, !tbaa !142
  %47 = getelementptr inbounds nuw %struct.wt_status_change_data, ptr %46, i32 0, i32 1
  store i32 65, ptr %47, align 4, !tbaa !144
  %48 = load i32, ptr %10, align 4, !tbaa !11
  %49 = load ptr, ptr %13, align 8, !tbaa !142
  %50 = getelementptr inbounds nuw %struct.wt_status_change_data, ptr %49, i32 0, i32 4
  store i32 %48, ptr %50, align 8, !tbaa !147
  %51 = load ptr, ptr %13, align 8, !tbaa !142
  %52 = getelementptr inbounds nuw %struct.wt_status_change_data, ptr %51, i32 0, i32 7
  %53 = load ptr, ptr %7, align 8, !tbaa !200
  call void @oidcpy(ptr noundef %52, ptr noundef %53)
  %54 = load ptr, ptr %14, align 8, !tbaa !4
  %55 = getelementptr inbounds nuw %struct.wt_status, ptr %54, i32 0, i32 32
  store i32 1, ptr %55, align 4, !tbaa !50
  call void @strbuf_release(ptr noundef %15)
  store i32 0, ptr %6, align 4
  store i32 1, ptr %16, align 4
  br label %56

56:                                               ; preds = %45, %21
  call void @llvm.lifetime.end.p0(i64 24, ptr %15) #12
  call void @llvm.lifetime.end.p0(i64 8, ptr %14) #12
  call void @llvm.lifetime.end.p0(i64 8, ptr %13) #12
  call void @llvm.lifetime.end.p0(i64 8, ptr %12) #12
  %57 = load i32, ptr %6, align 4
  ret i32 %57
}