; Function Attrs: nounwind uwtable
define internal range(i32 0, 2) i32 @add_file_to_list(ptr noundef readonly captures(none) %0, ptr noundef readonly captures(none) %1, ptr noundef %2, i32 noundef %3, ptr noundef %4) #0 {
  %6 = alloca %struct.strbuf, align 8
  call void @llvm.lifetime.start.p0(i64 24, ptr nonnull %6) #20
  call void @llvm.memcpy.p0.p0.i64(ptr noundef nonnull align 8 dereferenceable(24) %6, ptr noundef nonnull align 8 dereferenceable(24) @__const.wt_longstatus_print_other.buf, i64 24, i1 false)
  %7 = and i32 %3, 61440
  %8 = icmp eq i32 %7, 16384
  br i1 %8, label %31, label %9

9:                                                ; preds = %5
  %10 = getelementptr inbounds nuw i8, ptr %1, i64 16
  %11 = load ptr, ptr %10, align 8, !tbaa !25
  %12 = getelementptr inbounds nuw i8, ptr %1, i64 8
  %13 = load i64, ptr %12, align 8, !tbaa !4
  call void @strbuf_add(ptr noundef nonnull %6, ptr noundef %11, i64 noundef %13) #20
  %14 = call i64 @strlen(ptr noundef nonnull dereferenceable(1) %2) #21
  call void @strbuf_add(ptr noundef nonnull %6, ptr noundef nonnull %2, i64 noundef %14) #20
  %15 = getelementptr inbounds nuw i8, ptr %4, i64 1096
  %16 = getelementptr inbounds nuw i8, ptr %6, i64 16
  %17 = load ptr, ptr %16, align 8, !tbaa !25
  %18 = call ptr @string_list_insert(ptr noundef nonnull %15, ptr noundef %17) #20
  %19 = getelementptr inbounds nuw i8, ptr %18, i64 8
  %20 = load ptr, ptr %19, align 8, !tbaa !131
  %.not = icmp eq ptr %20, null
  br i1 %.not, label %21, label %23

21:                                               ; preds = %9
  %22 = call ptr @xcalloc(i64 noundef 1, i64 noundef 120) #20
  store ptr %22, ptr %19, align 8, !tbaa !131
  br label %23

23:                                               ; preds = %21, %9
  %.016 = phi ptr [ %20, %9 ], [ %22, %21 ]
  %24 = getelementptr inbounds nuw i8, ptr %.016, i64 4
  store i32 65, ptr %24, align 4, !tbaa !133
  %25 = getelementptr inbounds nuw i8, ptr %.016, i64 16
  store i32 %3, ptr %25, align 8, !tbaa !137
  %26 = getelementptr inbounds nuw i8, ptr %.016, i64 60
  call void @llvm.memcpy.p0.p0.i64(ptr noundef nonnull align 4 dereferenceable(32) %26, ptr noundef nonnull readonly align 4 dereferenceable(32) %0, i64 32, i1 false)
  %27 = getelementptr inbounds nuw i8, ptr %0, i64 32
  %28 = load i32, ptr %27, align 4, !tbaa !138
  %29 = getelementptr inbounds nuw i8, ptr %.016, i64 92
  store i32 %28, ptr %29, align 4, !tbaa !138
  %30 = getelementptr inbounds nuw i8, ptr %4, i64 1060
  store i32 1, ptr %30, align 4, !tbaa !136
  call void @strbuf_release(ptr noundef nonnull %6) #20
  br label %31

31:                                               ; preds = %5, %23
  %.0 = phi i32 [ 0, %23 ], [ 1, %5 ]
  call void @llvm.lifetime.end.p0(i64 24, ptr nonnull %6) #20
  ret i32 %.0
}